; Function Attrs: nounwind uwtable
define internal i32 @luaB_pcall(ptr noundef %0) #0 {
  %2 = alloca %struct.CallS, align 8
  %3 = getelementptr inbounds nuw i8, ptr %0, i64 24
  %4 = load ptr, ptr %3, align 8, !tbaa !86
  %5 = getelementptr inbounds nuw i8, ptr %0, i64 16
  %6 = load ptr, ptr %5, align 8, !tbaa !62
  %.not28.i.i.i = icmp uge ptr %4, %6
  %7 = icmp eq ptr %4, @luaO_nilobject_
  %or.cond.i = or i1 %7, %.not28.i.i.i
  br i1 %or.cond.i, label %lua_type.exit.thread.i, label %lua_type.exit.i

lua_type.exit.i:                                  ; preds = %1
  %8 = getelementptr i8, ptr %4, i64 8
  %9 = load i32, ptr %8, align 8, !tbaa !69
  %10 = icmp eq i32 %9, -1
  br i1 %10, label %lua_type.exit.thread.i, label %luaL_checkany.exit

lua_type.exit.thread.i:                           ; preds = %lua_type.exit.i, %1
  tail call fastcc void @luaL_argerror(ptr noundef nonnull %0, i32 noundef 1, ptr noundef nonnull @.str.117)
  unreachable

luaL_checkany.exit:                               ; preds = %lua_type.exit.i
  %11 = ptrtoint ptr %6 to i64
  %12 = ptrtoint ptr %4 to i64
  %.neg = sub i64 %12, %11
  call void @llvm.lifetime.start.p0(i64 16, ptr nonnull %2) #35
  %.neg9 = shl i64 %.neg, 28
  %13 = ashr i64 %.neg9, 32
  %14 = getelementptr inbounds %struct.lua_TValue, ptr %6, i64 %13
  store ptr %14, ptr %2, align 8, !tbaa !78
  %15 = getelementptr inbounds nuw i8, ptr %2, i64 8
  store i32 -1, ptr %15, align 8, !tbaa !80
  %16 = getelementptr inbounds nuw i8, ptr %0, i64 64
  %17 = load ptr, ptr %16, align 8, !tbaa !30
  %18 = ptrtoint ptr %14 to i64
  %19 = ptrtoint ptr %17 to i64
  %20 = sub i64 %18, %19
  %21 = call fastcc i32 @luaD_pcall(ptr noundef nonnull %0, ptr noundef nonnull @f_call, ptr noundef %2, i64 noundef %20, i64 noundef 0)
  %22 = load ptr, ptr %5, align 8, !tbaa !62
  %23 = getelementptr inbounds nuw i8, ptr %0, i64 40
  %24 = load ptr, ptr %23, align 8, !tbaa !83
  %25 = getelementptr inbounds nuw i8, ptr %24, i64 16
  %26 = load ptr, ptr %25, align 8, !tbaa !119
  %.not.i = icmp ult ptr %22, %26
  br i1 %.not.i, label %lua_pcall.exit, label %27

27:                                               ; preds = %luaL_checkany.exit
  store ptr %22, ptr %25, align 8, !tbaa !119
  br label %lua_pcall.exit

lua_pcall.exit:                                   ; preds = %luaL_checkany.exit, %27
  call void @llvm.lifetime.end.p0(i64 16, ptr nonnull %2) #35
  %28 = icmp eq i32 %21, 0
  %29 = zext i1 %28 to i32
  store i32 %29, ptr %22, align 8, !tbaa !46
  %30 = getelementptr inbounds nuw i8, ptr %22, i64 8
  store i32 1, ptr %30, align 8, !tbaa !69
  %31 = load ptr, ptr %5, align 8, !tbaa !62
  %32 = getelementptr inbounds nuw i8, ptr %31, i64 16
  store ptr %32, ptr %5, align 8, !tbaa !62
  %33 = load ptr, ptr %3, align 8, !tbaa !86
  %.not28.i.i = icmp ult ptr %33, %32
  %.luaO_nilobject_.i.i = select i1 %.not28.i.i, ptr %33, ptr @luaO_nilobject_
  %34 = icmp ugt ptr %32, %.luaO_nilobject_.i.i
  br i1 %34, label %.lr.ph.i, label %lua_insert.exit

.lr.ph.i:                                         ; preds = %lua_pcall.exit, %.lr.ph.i
  %.018.i = phi ptr [ %35, %.lr.ph.i ], [ %32, %lua_pcall.exit ]
  %35 = getelementptr inbounds i8, ptr %.018.i, i64 -16
  %36 = load i64, ptr %35, align 8, !tbaa !46
  store i64 %36, ptr %.018.i, align 8, !tbaa !46
  %37 = getelementptr inbounds i8, ptr %.018.i, i64 -8
  %38 = load i32, ptr %37, align 8, !tbaa !69
  %39 = getelementptr inbounds nuw i8, ptr %.018.i, i64 8
  store i32 %38, ptr %39, align 8, !tbaa !69
  %40 = icmp ugt ptr %35, %.luaO_nilobject_.i.i
  br i1 %40, label %.lr.ph.i, label %._crit_edge.loopexit.i, !llvm.loop !259

._crit_edge.loopexit.i:                           ; preds = %.lr.ph.i
  %.pre.i = load ptr, ptr %5, align 8, !tbaa !62
  br label %lua_insert.exit

lua_insert.exit:                                  ; preds = %lua_pcall.exit, %._crit_edge.loopexit.i
  %41 = phi ptr [ %.pre.i, %._crit_edge.loopexit.i ], [ %32, %lua_pcall.exit ]
  %42 = load i64, ptr %41, align 8, !tbaa !46
  store i64 %42, ptr %.luaO_nilobject_.i.i, align 8, !tbaa !46
  %43 = getelementptr inbounds nuw i8, ptr %41, i64 8
  %44 = load i32, ptr %43, align 8, !tbaa !69
  %45 = getelementptr inbounds nuw i8, ptr %.luaO_nilobject_.i.i, i64 8
  store i32 %44, ptr %45, align 8, !tbaa !69
  %.val7 = load ptr, ptr %5, align 8, !tbaa !62
  %.val8 = load ptr, ptr %3, align 8, !tbaa !86
  %46 = ptrtoint ptr %.val7 to i64
  %47 = ptrtoint ptr %.val8 to i64
  %48 = sub i64 %46, %47
  %49 = lshr exact i64 %48, 4
  %50 = trunc i64 %49 to i32
  ret i32 %50
}